target datalayout = "e-m:e-p270:32:32-p271:32:32-p272:64:64-i64:64-i128:128-f80:128-n8:16:32:64-S128"
target triple = "x86_64-pc-linux-gnu"

%"class.draco::ObjEncoder" = type { ptr, ptr, ptr, ptr, ptr, ptr, [20 x i8], ptr, ptr, ptr, %"class.std::unordered_map", i32, %"class.std::unordered_map", i32, %"class.std::__cxx11::basic_string" }
%"class.std::unordered_map" = type { %"class.std::_Hashtable" }
%"class.std::_Hashtable" = type { ptr, i64, %"struct.std::__detail::_Hash_node_base", i64, %"struct.std::__detail::_Prime_rehash_policy", ptr }
%"struct.std::__detail::_Hash_node_base" = type { ptr }
%"struct.std::__detail::_Prime_rehash_policy" = type { float, i64 }
%"class.std::__cxx11::basic_string" = type { %"struct.std::__cxx11::basic_string<char>::_Alloc_hider", i64, %union.anon }
%"struct.std::__cxx11::basic_string<char>::_Alloc_hider" = type { ptr }
%union.anon = type { i64, [8 x i8] }
%"class.draco::EncoderBuffer" = type <{ %"class.std::vector", %"class.std::unique_ptr.7", i64, i8, [7 x i8] }>
%"class.std::vector" = type { %"struct.std::_Vector_base" }
%"struct.std::_Vector_base" = type { %"struct.std::_Vector_base<char, std::allocator<char>>::_Vector_impl" }
%"struct.std::_Vector_base<char, std::allocator<char>>::_Vector_impl" = type { %"struct.std::_Vector_base<char, std::allocator<char>>::_Vector_impl_data" }
%"struct.std::_Vector_base<char, std::allocator<char>>::_Vector_impl_data" = type { ptr, ptr, ptr }
%"class.std::unique_ptr.7" = type { %"struct.std::__uniq_ptr_data.8" }
%"struct.std::__uniq_ptr_data.8" = type { %"class.std::__uniq_ptr_impl.9" }
%"class.std::__uniq_ptr_impl.9" = type { %"class.std::tuple.10" }
%"class.std::tuple.10" = type { %"struct.std::_Tuple_impl.11" }
%"struct.std::_Tuple_impl.11" = type { %"struct.std::_Head_base.14" }
%"struct.std::_Head_base.14" = type { ptr }
%"class.__gnu_cxx::__normal_iterator.136" = type { ptr }
%"class.__gnu_cxx::__normal_iterator" = type { ptr }

@.str.13 = private unnamed_addr constant [3 x i8] c"%d\00", align 1

; Function Attrs: inlinehint mustprogress nounwind uwtable
define linkonce_odr dso_local void @_ZSt19__iterator_categoryIPKhENSt15iterator_traitsIT_E17iterator_categoryERKS3_(ptr noundef nonnull align 8 dereferenceable(8) %0) #7 comdat {
  %2 = alloca ptr, align 8
  store ptr %0, ptr %2, align 8, !tbaa !289
  ret void
}

; Function Attrs: mustprogress nounwind uwtable
define linkonce_odr dso_local noundef nonnull align 8 dereferenceable(8) ptr @_ZNK9__gnu_cxx17__normal_iteratorIPKcSt6vectorIcSaIcEEE4baseEv(ptr noundef nonnull align 8 dereferenceable(8) %0) #4 comdat align 2 {
  %2 = alloca ptr, align 8
  store ptr %0, ptr %2, align 8, !tbaa !280
  %3 = load ptr, ptr %2, align 8
  %4 = getelementptr inbounds nuw %"class.__gnu_cxx::__normal_iterator.136", ptr %3, i32 0, i32 0
  ret ptr %4
}

; Function Attrs: mustprogress nounwind uwtable
define linkonce_odr dso_local void @_ZN9__gnu_cxx17__normal_iteratorIPKcSt6vectorIcSaIcEEEC2ERKS2_(ptr noundef nonnull align 8 dereferenceable(8) %0, ptr noundef nonnull align 8 dereferenceable(8) %1) unnamed_addr #4 comdat align 2 {
  %3 = alloca ptr, align 8
  %4 = alloca ptr, align 8
  store ptr %0, ptr %3, align 8, !tbaa !280
  store ptr %1, ptr %4, align 8, !tbaa !289
  %5 = load ptr, ptr %3, align 8
  %6 = getelementptr inbounds nuw %"class.__gnu_cxx::__normal_iterator.136", ptr %5, i32 0, i32 0
  %7 = load ptr, ptr %4, align 8, !tbaa !289
  %8 = load ptr, ptr %7, align 8, !tbaa !76
  store ptr %8, ptr %6, align 8, !tbaa !284
  ret void
}

; Function Attrs: mustprogress uwtable
define linkonce_odr dso_local void @_ZNSt6vectorIcSaIcEE18_M_insert_dispatchIPKhEEvN9__gnu_cxx17__normal_iteratorIPcS1_EET_S9_St12__false_type(ptr noundef nonnull align 8 dereferenceable(24) %0, ptr %1, ptr noundef %2, ptr noundef %3) #5 comdat align 2 {
  %5 = alloca %"class.__gnu_cxx::__normal_iterator", align 8
  %6 = alloca ptr, align 8
  %7 = alloca ptr, align 8
  %8 = alloca ptr, align 8
  %9 = alloca %"class.__gnu_cxx::__normal_iterator", align 8
  %10 = getelementptr inbounds nuw %"class.__gnu_cxx::__normal_iterator", ptr %5, i32 0, i32 0
  store ptr %1, ptr %10, align 8
  store ptr %0, ptr %6, align 8, !tbaa !229
  store ptr %2, ptr %7, align 8, !tbaa !76
  store ptr %3, ptr %8, align 8, !tbaa !76
  %11 = load ptr, ptr %6, align 8
  call void @llvm.memcpy.p0.p0.i64(ptr align 8 %9, ptr align 8 %5, i64 8, i1 false), !tbaa.struct !286
  %12 = load ptr, ptr %7, align 8, !tbaa !76
  %13 = load ptr, ptr %8, align 8, !tbaa !76
  call void @_ZSt19__iterator_categoryIPKhENSt15iterator_traitsIT_E17iterator_categoryERKS3_(ptr noundef nonnull align 8 dereferenceable(8) %7)
  %14 = getelementptr inbounds nuw %"class.__gnu_cxx::__normal_iterator", ptr %9, i32 0, i32 0
  %15 = load ptr, ptr %14, align 8
  call void @_ZNSt6vectorIcSaIcEE15_M_range_insertIPKhEEvN9__gnu_cxx17__normal_iteratorIPcS1_EET_S9_St20forward_iterator_tag(ptr noundef nonnull align 8 dereferenceable(24) %11, ptr %15, ptr noundef %12, ptr noundef %13)
  ret void
}

; Function Attrs: mustprogress nounwind uwtable
define linkonce_odr dso_local ptr @_ZNK9__gnu_cxx17__normal_iteratorIPcSt6vectorIcSaIcEEEplEl(ptr noundef nonnull align 8 dereferenceable(8) %0, i64 noundef %1) #4 comdat align 2 {
  %3 = alloca %"class.__gnu_cxx::__normal_iterator", align 8
  %4 = alloca ptr, align 8
  %5 = alloca i64, align 8
  %6 = alloca ptr, align 8
  store ptr %0, ptr %4, align 8, !tbaa !282
  store i64 %1, ptr %5, align 8, !tbaa !132
  %7 = load ptr, ptr %4, align 8
  call void @llvm.lifetime.start.p0(i64 8, ptr %6) #3
  %8 = getelementptr inbounds nuw %"class.__gnu_cxx::__normal_iterator", ptr %7, i32 0, i32 0
  %9 = load ptr, ptr %8, align 8, !tbaa !287
  %10 = load i64, ptr %5, align 8, !tbaa !132
  %11 = getelementptr inbounds i8, ptr %9, i64 %10
  store ptr %11, ptr %6, align 8, !tbaa !76
  call void @_ZN9__gnu_cxx17__normal_iteratorIPcSt6vectorIcSaIcEEEC2ERKS1_(ptr noundef nonnull align 8 dereferenceable(8) %3, ptr noundef nonnull align 8 dereferenceable(8) %6) #3
  call void @llvm.lifetime.end.p0(i64 8, ptr %6) #3
  %12 = getelementptr inbounds nuw %"class.__gnu_cxx::__normal_iterator", ptr %3, i32 0, i32 0
  %13 = load ptr, ptr %12, align 8
  ret ptr %13
}

; Function Attrs: mustprogress nounwind uwtable
define linkonce_odr dso_local ptr @_ZNSt6vectorIcSaIcEE5beginEv(ptr noundef nonnull align 8 dereferenceable(24) %0) #4 comdat align 2 {
  %2 = alloca %"class.__gnu_cxx::__normal_iterator", align 8
  %3 = alloca ptr, align 8
  store ptr %0, ptr %3, align 8, !tbaa !229
  %4 = load ptr, ptr %3, align 8
  %5 = getelementptr inbounds nuw %"struct.std::_Vector_base", ptr %4, i32 0, i32 0
  %6 = getelementptr inbounds nuw %"struct.std::_Vector_base<char, std::allocator<char>>::_Vector_impl_data", ptr %5, i32 0, i32 0
  call void @_ZN9__gnu_cxx17__normal_iteratorIPcSt6vectorIcSaIcEEEC2ERKS1_(ptr noundef nonnull align 8 dereferenceable(8) %2, ptr noundef nonnull align 8 dereferenceable(8) %6) #3
  %7 = getelementptr inbounds nuw %"class.__gnu_cxx::__normal_iterator", ptr %2, i32 0, i32 0
  %8 = load ptr, ptr %7, align 8
  ret ptr %8
}

; Function Attrs: inlinehint mustprogress nounwind uwtable
define linkonce_odr dso_local noundef i64 @_ZN9__gnu_cxxmiIPKcSt6vectorIcSaIcEEEENS_17__normal_iteratorIT_T0_E15difference_typeERKS9_SC_(ptr noundef nonnull align 8 dereferenceable(8) %0, ptr noundef nonnull align 8 dereferenceable(8) %1) #7 comdat {
  %3 = alloca ptr, align 8
  %4 = alloca ptr, align 8
  store ptr %0, ptr %3, align 8, !tbaa !280
  store ptr %1, ptr %4, align 8, !tbaa !280
  %5 = load ptr, ptr %3, align 8, !tbaa !280
  %6 = call noundef nonnull align 8 dereferenceable(8) ptr @_ZNK9__gnu_cxx17__normal_iteratorIPKcSt6vectorIcSaIcEEE4baseEv(ptr noundef nonnull align 8 dereferenceable(8) %5) #3
  %7 = load ptr, ptr %6, align 8, !tbaa !76
  %8 = load ptr, ptr %4, align 8, !tbaa !280
  %9 = call noundef nonnull align 8 dereferenceable(8) ptr @_ZNK9__gnu_cxx17__normal_iteratorIPKcSt6vectorIcSaIcEEE4baseEv(ptr noundef nonnull align 8 dereferenceable(8) %8) #3
  %10 = load ptr, ptr %9, align 8, !tbaa !76
  %11 = ptrtoint ptr %7 to i64
  %12 = ptrtoint ptr %10 to i64
  %13 = sub i64 %11, %12
  ret i64 %13
}

; Function Attrs: mustprogress nounwind uwtable
define linkonce_odr dso_local ptr @_ZNKSt6vectorIcSaIcEE6cbeginEv(ptr noundef nonnull align 8 dereferenceable(24) %0) #4 comdat align 2 {
  %2 = alloca %"class.__gnu_cxx::__normal_iterator.136", align 8
  %3 = alloca ptr, align 8
  store ptr %0, ptr %3, align 8, !tbaa !229
  %4 = load ptr, ptr %3, align 8
  %5 = getelementptr inbounds nuw %"struct.std::_Vector_base", ptr %4, i32 0, i32 0
  %6 = getelementptr inbounds nuw %"struct.std::_Vector_base<char, std::allocator<char>>::_Vector_impl_data", ptr %5, i32 0, i32 0
  call void @_ZN9__gnu_cxx17__normal_iteratorIPKcSt6vectorIcSaIcEEEC2ERKS2_(ptr noundef nonnull align 8 dereferenceable(8) %2, ptr noundef nonnull align 8 dereferenceable(8) %6) #3
  %7 = getelementptr inbounds nuw %"class.__gnu_cxx::__normal_iterator.136", ptr %2, i32 0, i32 0
  %8 = load ptr, ptr %7, align 8
  ret ptr %8
}

; Function Attrs: mustprogress nounwind uwtable
define linkonce_odr dso_local noundef nonnull align 8 dereferenceable(8) ptr @_ZNK9__gnu_cxx17__normal_iteratorIPcSt6vectorIcSaIcEEE4baseEv(ptr noundef nonnull align 8 dereferenceable(8) %0) #4 comdat align 2 {
  %2 = alloca ptr, align 8
  store ptr %0, ptr %2, align 8, !tbaa !282
  %3 = load ptr, ptr %2, align 8
  %4 = getelementptr inbounds nuw %"class.__gnu_cxx::__normal_iterator", ptr %3, i32 0, i32 0
  ret ptr %4
}

; Function Attrs: mustprogress nounwind uwtable
define linkonce_odr dso_local void @_ZN9__gnu_cxx17__normal_iteratorIPcSt6vectorIcSaIcEEEC2ERKS1_(ptr noundef nonnull align 8 dereferenceable(8) %0, ptr noundef nonnull align 8 dereferenceable(8) %1) unnamed_addr #4 comdat align 2 {
  %3 = alloca ptr, align 8
  %4 = alloca ptr, align 8
  store ptr %0, ptr %3, align 8, !tbaa !282
  store ptr %1, ptr %4, align 8, !tbaa !289
  %5 = load ptr, ptr %3, align 8
  %6 = getelementptr inbounds nuw %"class.__gnu_cxx::__normal_iterator", ptr %5, i32 0, i32 0
  %7 = load ptr, ptr %4, align 8, !tbaa !289
  %8 = load ptr, ptr %7, align 8, !tbaa !76
  store ptr %8, ptr %6, align 8, !tbaa !287
  ret void
}

; Function Attrs: mustprogress uwtable
define linkonce_odr dso_local ptr @_ZNSt6vectorIcSaIcEE6insertIPKhvEEN9__gnu_cxx17__normal_iteratorIPcS1_EENS6_IPKcS1_EET_SC_(ptr noundef nonnull align 8 dereferenceable(24) %0, ptr %1, ptr noundef %2, ptr noundef %3) #5 comdat align 2 {
  %5 = alloca %"class.__gnu_cxx::__normal_iterator", align 8
  %6 = alloca %"class.__gnu_cxx::__normal_iterator.136", align 8
  %7 = alloca ptr, align 8
  %8 = alloca ptr, align 8
  %9 = alloca ptr, align 8
  %10 = alloca i64, align 8
  %11 = alloca %"class.__gnu_cxx::__normal_iterator.136", align 8
  %12 = alloca %"class.__gnu_cxx::__normal_iterator", align 8
  %13 = alloca %"class.__gnu_cxx::__normal_iterator", align 8
  %14 = alloca %"class.__gnu_cxx::__normal_iterator", align 8
  %15 = getelementptr inbounds nuw %"class.__gnu_cxx::__normal_iterator.136", ptr %6, i32 0, i32 0
  store ptr %1, ptr %15, align 8
  store ptr %0, ptr %7, align 8, !tbaa !229
  store ptr %2, ptr %8, align 8, !tbaa !76
  store ptr %3, ptr %9, align 8, !tbaa !76
  %16 = load ptr, ptr %7, align 8
  call void @llvm.lifetime.start.p0(i64 8, ptr %10) #3
  call void @llvm.lifetime.start.p0(i64 8, ptr %11) #3
  %17 = call ptr @_ZNKSt6vectorIcSaIcEE6cbeginEv(ptr noundef nonnull align 8 dereferenceable(24) %16) #3
  %18 = getelementptr inbounds nuw %"class.__gnu_cxx::__normal_iterator.136", ptr %11, i32 0, i32 0
  store ptr %17, ptr %18, align 8
  %19 = call noundef i64 @_ZN9__gnu_cxxmiIPKcSt6vectorIcSaIcEEEENS_17__normal_iteratorIT_T0_E15difference_typeERKS9_SC_(ptr noundef nonnull align 8 dereferenceable(8) %6, ptr noundef nonnull align 8 dereferenceable(8) %11) #3
  call void @llvm.lifetime.end.p0(i64 8, ptr %11) #3
  store i64 %19, ptr %10, align 8, !tbaa !132
  call void @llvm.lifetime.start.p0(i64 8, ptr %13) #3
  %20 = call ptr @_ZNSt6vectorIcSaIcEE5beginEv(ptr noundef nonnull align 8 dereferenceable(24) %16) #3
  %21 = getelementptr inbounds nuw %"class.__gnu_cxx::__normal_iterator", ptr %13, i32 0, i32 0
  store ptr %20, ptr %21, align 8
  %22 = load i64, ptr %10, align 8, !tbaa !132
  %23 = call ptr @_ZNK9__gnu_cxx17__normal_iteratorIPcSt6vectorIcSaIcEEEplEl(ptr noundef nonnull align 8 dereferenceable(8) %13, i64 noundef %22) #3
  %24 = getelementptr inbounds nuw %"class.__gnu_cxx::__normal_iterator", ptr %12, i32 0, i32 0
  store ptr %23, ptr %24, align 8
  %25 = load ptr, ptr %8, align 8, !tbaa !76
  %26 = load ptr, ptr %9, align 8, !tbaa !76
  %27 = getelementptr inbounds nuw %"class.__gnu_cxx::__normal_iterator", ptr %12, i32 0, i32 0
  %28 = load ptr, ptr %27, align 8
  call void @_ZNSt6vectorIcSaIcEE18_M_insert_dispatchIPKhEEvN9__gnu_cxx17__normal_iteratorIPcS1_EET_S9_St12__false_type(ptr noundef nonnull align 8 dereferenceable(24) %16, ptr %28, ptr noundef %25, ptr noundef %26)
  call void @llvm.lifetime.end.p0(i64 8, ptr %13) #3
  call void @llvm.lifetime.start.p0(i64 8, ptr %14) #3
  %29 = call ptr @_ZNSt6vectorIcSaIcEE5beginEv(ptr noundef nonnull align 8 dereferenceable(24) %16) #3
  %30 = getelementptr inbounds nuw %"class.__gnu_cxx::__normal_iterator", ptr %14, i32 0, i32 0
  store ptr %29, ptr %30, align 8
  %31 = load i64, ptr %10, align 8, !tbaa !132
  %32 = call ptr @_ZNK9__gnu_cxx17__normal_iteratorIPcSt6vectorIcSaIcEEEplEl(ptr noundef nonnull align 8 dereferenceable(8) %14, i64 noundef %31) #3
  %33 = getelementptr inbounds nuw %"class.__gnu_cxx::__normal_iterator", ptr %5, i32 0, i32 0
  store ptr %32, ptr %33, align 8
  call void @llvm.lifetime.end.p0(i64 8, ptr %14) #3
  call void @llvm.lifetime.end.p0(i64 8, ptr %10) #3
  %34 = getelementptr inbounds nuw %"class.__gnu_cxx::__normal_iterator", ptr %5, i32 0, i32 0
  %35 = load ptr, ptr %34, align 8
  ret ptr %35
}

; Function Attrs: mustprogress nounwind uwtable
define linkonce_odr dso_local void @_ZN9__gnu_cxx17__normal_iteratorIPKcSt6vectorIcSaIcEEEC2IPcvEERKNS0_IT_S5_EE(ptr noundef nonnull align 8 dereferenceable(8) %0, ptr noundef nonnull align 8 dereferenceable(8) %1) unnamed_addr #4 comdat align 2 {
  %3 = alloca ptr, align 8
  %4 = alloca ptr, align 8
  store ptr %0, ptr %3, align 8, !tbaa !280
  store ptr %1, ptr %4, align 8, !tbaa !282
  %5 = load ptr, ptr %3, align 8
  %6 = getelementptr inbounds nuw %"class.__gnu_cxx::__normal_iterator.136", ptr %5, i32 0, i32 0
  %7 = load ptr, ptr %4, align 8, !tbaa !282
  %8 = call noundef nonnull align 8 dereferenceable(8) ptr @_ZNK9__gnu_cxx17__normal_iteratorIPcSt6vectorIcSaIcEEE4baseEv(ptr noundef nonnull align 8 dereferenceable(8) %7) #3
  %9 = load ptr, ptr %8, align 8, !tbaa !76
  store ptr %9, ptr %6, align 8, !tbaa !284
  ret void
}

; Function Attrs: mustprogress nounwind uwtable
define linkonce_odr dso_local ptr @_ZNSt6vectorIcSaIcEE3endEv(ptr noundef nonnull align 8 dereferenceable(24) %0) #4 comdat align 2 {
  %2 = alloca %"class.__gnu_cxx::__normal_iterator", align 8
  %3 = alloca ptr, align 8
  store ptr %0, ptr %3, align 8, !tbaa !229
  %4 = load ptr, ptr %3, align 8
  %5 = getelementptr inbounds nuw %"struct.std::_Vector_base", ptr %4, i32 0, i32 0
  %6 = getelementptr inbounds nuw %"struct.std::_Vector_base<char, std::allocator<char>>::_Vector_impl_data", ptr %5, i32 0, i32 1
  call void @_ZN9__gnu_cxx17__normal_iteratorIPcSt6vectorIcSaIcEEEC2ERKS1_(ptr noundef nonnull align 8 dereferenceable(8) %2, ptr noundef nonnull align 8 dereferenceable(8) %6) #3
  %7 = getelementptr inbounds nuw %"class.__gnu_cxx::__normal_iterator", ptr %2, i32 0, i32 0
  %8 = load ptr, ptr %7, align 8
  ret ptr %8
}

; Function Attrs: mustprogress nounwind uwtable
define linkonce_odr dso_local noundef zeroext i1 @_ZNK5draco13EncoderBuffer18bit_encoder_activeEv(ptr noundef nonnull align 8 dereferenceable(41) %0) #4 comdat align 2 {
  %2 = alloca ptr, align 8
  store ptr %0, ptr %2, align 8, !tbaa !46
  %3 = load ptr, ptr %2, align 8
  %4 = getelementptr inbounds nuw %"class.draco::EncoderBuffer", ptr %3, i32 0, i32 2
  %5 = load i64, ptr %4, align 8, !tbaa !269
  %6 = icmp sgt i64 %5, 0
  ret i1 %6
}

; Function Attrs: mustprogress uwtable
define linkonce_odr dso_local noundef zeroext i1 @_ZN5draco13EncoderBuffer6EncodeEPKvm(ptr noundef nonnull align 8 dereferenceable(41) %0, ptr noundef %1, i64 noundef %2) #5 comdat align 2 {
  %4 = alloca i1, align 1
  %5 = alloca ptr, align 8
  %6 = alloca ptr, align 8
  %7 = alloca i64, align 8
  %8 = alloca ptr, align 8
  %9 = alloca %"class.__gnu_cxx::__normal_iterator.136", align 8
  %10 = alloca %"class.__gnu_cxx::__normal_iterator", align 8
  %11 = alloca %"class.__gnu_cxx::__normal_iterator", align 8
  store ptr %0, ptr %5, align 8, !tbaa !46
  store ptr %1, ptr %6, align 8, !tbaa !133
  store i64 %2, ptr %7, align 8, !tbaa !132
  %12 = load ptr, ptr %5, align 8
  %13 = call noundef zeroext i1 @_ZNK5draco13EncoderBuffer18bit_encoder_activeEv(ptr noundef nonnull align 8 dereferenceable(41) %12)
  br i1 %13, label %14, label %15

14:                                               ; preds = %3
  store i1 false, ptr %4, align 1
  br label %29

15:                                               ; preds = %3
  call void @llvm.lifetime.start.p0(i64 8, ptr %8) #3
  %16 = load ptr, ptr %6, align 8, !tbaa !133
  store ptr %16, ptr %8, align 8, !tbaa !76
  %17 = getelementptr inbounds nuw %"class.draco::EncoderBuffer", ptr %12, i32 0, i32 0
  call void @llvm.lifetime.start.p0(i64 8, ptr %10) #3
  %18 = getelementptr inbounds nuw %"class.draco::EncoderBuffer", ptr %12, i32 0, i32 0
  %19 = call ptr @_ZNSt6vectorIcSaIcEE3endEv(ptr noundef nonnull align 8 dereferenceable(24) %18) #3
  %20 = getelementptr inbounds nuw %"class.__gnu_cxx::__normal_iterator", ptr %10, i32 0, i32 0
  store ptr %19, ptr %20, align 8
  call void @_ZN9__gnu_cxx17__normal_iteratorIPKcSt6vectorIcSaIcEEEC2IPcvEERKNS0_IT_S5_EE(ptr noundef nonnull align 8 dereferenceable(8) %9, ptr noundef nonnull align 8 dereferenceable(8) %10) #3
  %21 = load ptr, ptr %8, align 8, !tbaa !76
  %22 = load ptr, ptr %8, align 8, !tbaa !76
  %23 = load i64, ptr %7, align 8, !tbaa !132
  %24 = getelementptr inbounds nuw i8, ptr %22, i64 %23
  %25 = getelementptr inbounds nuw %"class.__gnu_cxx::__normal_iterator.136", ptr %9, i32 0, i32 0
  %26 = load ptr, ptr %25, align 8
  %27 = call ptr @_ZNSt6vectorIcSaIcEE6insertIPKhvEEN9__gnu_cxx17__normal_iteratorIPcS1_EENS6_IPKcS1_EET_SC_(ptr noundef nonnull align 8 dereferenceable(24) %17, ptr %26, ptr noundef %21, ptr noundef %24)
  %28 = getelementptr inbounds nuw %"class.__gnu_cxx::__normal_iterator", ptr %11, i32 0, i32 0
  store ptr %27, ptr %28, align 8
  call void @llvm.lifetime.end.p0(i64 8, ptr %10) #3
  store i1 true, ptr %4, align 1
  call void @llvm.lifetime.end.p0(i64 8, ptr %8) #3
  br label %29

29:                                               ; preds = %15, %14
  %30 = load i1, ptr %4, align 1
  ret i1 %30
}

; Function Attrs: mustprogress nounwind uwtable
define linkonce_odr dso_local noundef ptr @_ZNK5draco10ObjEncoder6bufferEv(ptr noundef nonnull align 8 dereferenceable(256) %0) #4 comdat align 2 {
  %2 = alloca ptr, align 8
  store ptr %0, ptr %2, align 8, !tbaa !4
  %3 = load ptr, ptr %2, align 8
  %4 = getelementptr inbounds nuw %"class.draco::ObjEncoder", ptr %3, i32 0, i32 7
  %5 = load ptr, ptr %4, align 8, !tbaa !32
  ret ptr %5
}

; Function Attrs: mustprogress uwtable
define dso_local void @_ZN5draco10ObjEncoder9EncodeIntEi(ptr noundef nonnull align 8 dereferenceable(256) %0, i32 noundef %1) #5 align 2 {
  %3 = alloca ptr, align 8
  %4 = alloca i32, align 4
  store ptr %0, ptr %3, align 8, !tbaa !4
  store i32 %1, ptr %4, align 4, !tbaa !64
  %5 = load ptr, ptr %3, align 8
  %6 = getelementptr inbounds nuw %"class.draco::ObjEncoder", ptr %5, i32 0, i32 6
  %7 = getelementptr inbounds [20 x i8], ptr %6, i64 0, i64 0
  %8 = load i32, ptr %4, align 4, !tbaa !64
  %9 = call i32 (ptr, i64, ptr, ...) @snprintf(ptr noundef %7, i64 noundef 20, ptr noundef @.str.13, i32 noundef %8) #3
  %10 = call noundef ptr @_ZNK5draco10ObjEncoder6bufferEv(ptr noundef nonnull align 8 dereferenceable(256) %5)
  %11 = getelementptr inbounds nuw %"class.draco::ObjEncoder", ptr %5, i32 0, i32 6
  %12 = getelementptr inbounds [20 x i8], ptr %11, i64 0, i64 0
  %13 = getelementptr inbounds nuw %"class.draco::ObjEncoder", ptr %5, i32 0, i32 6
  %14 = getelementptr inbounds [20 x i8], ptr %13, i64 0, i64 0
  %15 = call i64 @strlen(ptr noundef %14) #22
  %16 = call noundef zeroext i1 @_ZN5draco13EncoderBuffer6EncodeEPKvm(ptr noundef nonnull align 8 dereferenceable(41) %10, ptr noundef %12, i64 noundef %15)
  ret void
}