; Function Attrs: mustprogress uwtable
define dso_local void @_ZN5draco10ObjEncoder9EncodeIntEi(ptr noundef nonnull align 8 dereferenceable(256) %0, i32 noundef %1) local_unnamed_addr #4 align 2 {
  %3 = getelementptr inbounds nuw i8, ptr %0, i64 48
  %4 = tail call i32 (ptr, i64, ptr, ...) @snprintf(ptr noundef nonnull dereferenceable(1) %3, i64 noundef 20, ptr noundef nonnull @.str.13, i32 noundef %1) #24
  %5 = getelementptr inbounds nuw i8, ptr %0, i64 72
  %6 = load ptr, ptr %5, align 8, !tbaa !35
  %7 = getelementptr inbounds nuw i8, ptr %6, i64 32
  %8 = load i64, ptr %7, align 8, !tbaa !112
  %9 = icmp slt i64 %8, 1
  br i1 %9, label %10, label %_ZN5draco13EncoderBuffer6EncodeEPKvm.exit

10:                                               ; preds = %2
  %11 = tail call i64 @strlen(ptr noundef nonnull dereferenceable(1) %3) #27
  %12 = getelementptr inbounds nuw i8, ptr %6, i64 8
  %13 = load ptr, ptr %12, align 8, !tbaa !123
  %14 = getelementptr inbounds nuw i8, ptr %3, i64 %11
  %15 = load ptr, ptr %6, align 8, !tbaa !123
  %16 = ptrtoint ptr %13 to i64
  %17 = ptrtoint ptr %15 to i64
  %18 = sub i64 %16, %17
  %19 = getelementptr inbounds i8, ptr %15, i64 %18
  tail call void @_ZNSt6vectorIcSaIcEE15_M_range_insertIPKhEEvN9__gnu_cxx17__normal_iteratorIPcS1_EET_S9_St20forward_iterator_tag(ptr noundef nonnull align 8 dereferenceable(41) %6, ptr %19, ptr noundef nonnull %3, ptr noundef nonnull %14)
  br label %_ZN5draco13EncoderBuffer6EncodeEPKvm.exit

_ZN5draco13EncoderBuffer6EncodeEPKvm.exit:        ; preds = %2, %10
  ret void
}